target datalayout = "e-m:e-p270:32:32-p271:32:32-p272:64:64-i64:64-i128:128-f80:128-n8:16:32:64-S128"
target triple = "x86_64-pc-linux-gnu"

%struct.sfparse_parser = type { ptr, ptr, i32 }
%struct.sfparse_vec = type { ptr, i64 }

; Function Attrs: nounwind uwtable
define internal i32 @parser_eof(ptr noundef %0) #0 {
  %2 = alloca ptr, align 8
  store ptr %0, ptr %2, align 8, !tbaa !3
  %3 = load ptr, ptr %2, align 8, !tbaa !3
  %4 = getelementptr inbounds nuw %struct.sfparse_parser, ptr %3, i32 0, i32 0
  %5 = load ptr, ptr %4, align 8, !tbaa !17
  %6 = load ptr, ptr %2, align 8, !tbaa !3
  %7 = getelementptr inbounds nuw %struct.sfparse_parser, ptr %6, i32 0, i32 1
  %8 = load ptr, ptr %7, align 8, !tbaa !22
  %9 = icmp eq ptr %5, %8
  %10 = zext i1 %9 to i32
  ret i32 %10
}

; Function Attrs: nounwind uwtable
define internal i32 @parser_key(ptr noundef %0, ptr noundef %1) #0 {
  %3 = alloca i32, align 4
  %4 = alloca ptr, align 8
  %5 = alloca ptr, align 8
  %6 = alloca ptr, align 8
  %7 = alloca i32, align 4
  store ptr %0, ptr %4, align 8, !tbaa !3
  store ptr %1, ptr %5, align 8, !tbaa !8
  call void @llvm.lifetime.start.p0(i64 8, ptr %6) #5
  %8 = load ptr, ptr %4, align 8, !tbaa !3
  %9 = getelementptr inbounds nuw %struct.sfparse_parser, ptr %8, i32 0, i32 0
  %10 = load ptr, ptr %9, align 8, !tbaa !17
  %11 = load i8, ptr %10, align 1, !tbaa !18
  %12 = zext i8 %11 to i32
  switch i32 %12, label %14 [
    i32 42, label %13
    i32 97, label %13
    i32 98, label %13
    i32 99, label %13
    i32 100, label %13
    i32 101, label %13
    i32 102, label %13
    i32 103, label %13
    i32 104, label %13
    i32 105, label %13
    i32 106, label %13
    i32 107, label %13
    i32 108, label %13
    i32 109, label %13
    i32 110, label %13
    i32 111, label %13
    i32 112, label %13
    i32 113, label %13
    i32 114, label %13
    i32 115, label %13
    i32 116, label %13
    i32 117, label %13
    i32 118, label %13
    i32 119, label %13
    i32 120, label %13
    i32 121, label %13
    i32 122, label %13
  ]

13:                                               ; preds = %2, %2, %2, %2, %2, %2, %2, %2, %2, %2, %2, %2, %2, %2, %2, %2, %2, %2, %2, %2, %2, %2, %2, %2, %2, %2, %2
  br label %15

14:                                               ; preds = %2
  store i32 -1, ptr %3, align 4
  store i32 1, ptr %7, align 4
  br label %57

15:                                               ; preds = %13
  %16 = load ptr, ptr %4, align 8, !tbaa !3
  %17 = getelementptr inbounds nuw %struct.sfparse_parser, ptr %16, i32 0, i32 0
  %18 = load ptr, ptr %17, align 8, !tbaa !17
  %19 = getelementptr inbounds nuw i8, ptr %18, i32 1
  store ptr %19, ptr %17, align 8, !tbaa !17
  store ptr %18, ptr %6, align 8, !tbaa !25
  br label %20

20:                                               ; preds = %33, %15
  %21 = load ptr, ptr %4, align 8, !tbaa !3
  %22 = call i32 @parser_eof(ptr noundef %21)
  %23 = icmp ne i32 %22, 0
  %24 = xor i1 %23, true
  br i1 %24, label %25, label %38

25:                                               ; preds = %20
  %26 = load ptr, ptr %4, align 8, !tbaa !3
  %27 = getelementptr inbounds nuw %struct.sfparse_parser, ptr %26, i32 0, i32 0
  %28 = load ptr, ptr %27, align 8, !tbaa !17
  %29 = load i8, ptr %28, align 1, !tbaa !18
  %30 = zext i8 %29 to i32
  switch i32 %30, label %32 [
    i32 95, label %31
    i32 45, label %31
    i32 46, label %31
    i32 42, label %31
    i32 48, label %31
    i32 49, label %31
    i32 50, label %31
    i32 51, label %31
    i32 52, label %31
    i32 53, label %31
    i32 54, label %31
    i32 55, label %31
    i32 56, label %31
    i32 57, label %31
    i32 97, label %31
    i32 98, label %31
    i32 99, label %31
    i32 100, label %31
    i32 101, label %31
    i32 102, label %31
    i32 103, label %31
    i32 104, label %31
    i32 105, label %31
    i32 106, label %31
    i32 107, label %31
    i32 108, label %31
    i32 109, label %31
    i32 110, label %31
    i32 111, label %31
    i32 112, label %31
    i32 113, label %31
    i32 114, label %31
    i32 115, label %31
    i32 116, label %31
    i32 117, label %31
    i32 118, label %31
    i32 119, label %31
    i32 120, label %31
    i32 121, label %31
    i32 122, label %31
  ]

31:                                               ; preds = %25, %25, %25, %25, %25, %25, %25, %25, %25, %25, %25, %25, %25, %25, %25, %25, %25, %25, %25, %25, %25, %25, %25, %25, %25, %25, %25, %25, %25, %25, %25, %25, %25, %25, %25, %25, %25, %25, %25, %25
  br label %33

32:                                               ; preds = %25
  br label %38

33:                                               ; preds = %31
  %34 = load ptr, ptr %4, align 8, !tbaa !3
  %35 = getelementptr inbounds nuw %struct.sfparse_parser, ptr %34, i32 0, i32 0
  %36 = load ptr, ptr %35, align 8, !tbaa !17
  %37 = getelementptr inbounds nuw i8, ptr %36, i32 1
  store ptr %37, ptr %35, align 8, !tbaa !17
  br label %20, !llvm.loop !26

38:                                               ; preds = %32, %20
  %39 = load ptr, ptr %5, align 8, !tbaa !8
  %40 = icmp ne ptr %39, null
  br i1 %40, label %41, label %56

41:                                               ; preds = %38
  %42 = load ptr, ptr %6, align 8, !tbaa !25
  %43 = load ptr, ptr %5, align 8, !tbaa !8
  %44 = getelementptr inbounds nuw %struct.sfparse_vec, ptr %43, i32 0, i32 0
  store ptr %42, ptr %44, align 8, !tbaa !27
  %45 = load ptr, ptr %4, align 8, !tbaa !3
  %46 = getelementptr inbounds nuw %struct.sfparse_parser, ptr %45, i32 0, i32 0
  %47 = load ptr, ptr %46, align 8, !tbaa !17
  %48 = load ptr, ptr %5, align 8, !tbaa !8
  %49 = getelementptr inbounds nuw %struct.sfparse_vec, ptr %48, i32 0, i32 0
  %50 = load ptr, ptr %49, align 8, !tbaa !27
  %51 = ptrtoint ptr %47 to i64
  %52 = ptrtoint ptr %50 to i64
  %53 = sub i64 %51, %52
  %54 = load ptr, ptr %5, align 8, !tbaa !8
  %55 = getelementptr inbounds nuw %struct.sfparse_vec, ptr %54, i32 0, i32 1
  store i64 %53, ptr %55, align 8, !tbaa !30
  br label %56

56:                                               ; preds = %41, %38
  store i32 0, ptr %3, align 4
  store i32 1, ptr %7, align 4
  br label %57

57:                                               ; preds = %56, %14
  call void @llvm.lifetime.end.p0(i64 8, ptr %6) #5
  %58 = load i32, ptr %3, align 4
  ret i32 %58
}