; Function Attrs: nofree norecurse nosync nounwind memory(read, argmem: readwrite, inaccessiblemem: none) uwtable
define internal fastcc range(i32 -1, 1) i32 @parser_key(ptr noundef captures(none) %0, ptr noundef writeonly %1) unnamed_addr #3 {
  %3 = load ptr, ptr %0, align 8, !tbaa !10
  %4 = load i8, ptr %3, align 1, !tbaa !12
  switch i8 %4, label %14 [
    i8 42, label %5
    i8 97, label %5
    i8 98, label %5
    i8 99, label %5
    i8 100, label %5
    i8 101, label %5
    i8 102, label %5
    i8 103, label %5
    i8 104, label %5
    i8 105, label %5
    i8 106, label %5
    i8 107, label %5
    i8 108, label %5
    i8 109, label %5
    i8 110, label %5
    i8 111, label %5
    i8 112, label %5
    i8 113, label %5
    i8 114, label %5
    i8 115, label %5
    i8 116, label %5
    i8 117, label %5
    i8 118, label %5
    i8 119, label %5
    i8 120, label %5
    i8 121, label %5
    i8 122, label %5
  ]

5:                                                ; preds = %2, %2, %2, %2, %2, %2, %2, %2, %2, %2, %2, %2, %2, %2, %2, %2, %2, %2, %2, %2, %2, %2, %2, %2, %2, %2, %2
  %6 = getelementptr i8, ptr %0, i64 8
  %.val13 = load ptr, ptr %6, align 8, !tbaa !11
  %storemerge14 = getelementptr inbounds nuw i8, ptr %3, i64 1
  store ptr %storemerge14, ptr %0, align 8, !tbaa !10
  %.not15 = icmp eq ptr %storemerge14, %.val13
  br i1 %.not15, label %._crit_edge, label %.lr.ph

.lr.ph:                                           ; preds = %5, %8
  %storemerge16 = phi ptr [ %storemerge, %8 ], [ %storemerge14, %5 ]
  %7 = load i8, ptr %storemerge16, align 1, !tbaa !12
  switch i8 %7, label %._crit_edge [
    i8 95, label %8
    i8 45, label %8
    i8 46, label %8
    i8 42, label %8
    i8 48, label %8
    i8 49, label %8
    i8 50, label %8
    i8 51, label %8
    i8 52, label %8
    i8 53, label %8
    i8 54, label %8
    i8 55, label %8
    i8 56, label %8
    i8 57, label %8
    i8 97, label %8
    i8 98, label %8
    i8 99, label %8
    i8 100, label %8
    i8 101, label %8
    i8 102, label %8
    i8 103, label %8
    i8 104, label %8
    i8 105, label %8
    i8 106, label %8
    i8 107, label %8
    i8 108, label %8
    i8 109, label %8
    i8 110, label %8
    i8 111, label %8
    i8 112, label %8
    i8 113, label %8
    i8 114, label %8
    i8 115, label %8
    i8 116, label %8
    i8 117, label %8
    i8 118, label %8
    i8 119, label %8
    i8 120, label %8
    i8 121, label %8
    i8 122, label %8
  ]

8:                                                ; preds = %.lr.ph, %.lr.ph, %.lr.ph, %.lr.ph, %.lr.ph, %.lr.ph, %.lr.ph, %.lr.ph, %.lr.ph, %.lr.ph, %.lr.ph, %.lr.ph, %.lr.ph, %.lr.ph, %.lr.ph, %.lr.ph, %.lr.ph, %.lr.ph, %.lr.ph, %.lr.ph, %.lr.ph, %.lr.ph, %.lr.ph, %.lr.ph, %.lr.ph, %.lr.ph, %.lr.ph, %.lr.ph, %.lr.ph, %.lr.ph, %.lr.ph, %.lr.ph, %.lr.ph, %.lr.ph, %.lr.ph, %.lr.ph, %.lr.ph, %.lr.ph, %.lr.ph, %.lr.ph
  %storemerge = getelementptr inbounds nuw i8, ptr %storemerge16, i64 1
  store ptr %storemerge, ptr %0, align 8, !tbaa !10
  %.not = icmp eq ptr %storemerge, %.val13
  br i1 %.not, label %._crit_edge, label %.lr.ph, !llvm.loop !18

._crit_edge:                                      ; preds = %8, %.lr.ph, %5
  %storemerge.lcssa = phi ptr [ %.val13, %5 ], [ %storemerge16, %.lr.ph ], [ %.val13, %8 ]
  %.not12 = icmp eq ptr %1, null
  br i1 %.not12, label %14, label %9

9:                                                ; preds = %._crit_edge
  store ptr %3, ptr %1, align 8, !tbaa !19
  %10 = ptrtoint ptr %storemerge.lcssa to i64
  %11 = ptrtoint ptr %3 to i64
  %12 = sub i64 %10, %11
  %13 = getelementptr inbounds nuw i8, ptr %1, i64 8
  store i64 %12, ptr %13, align 8, !tbaa !22
  br label %14

14:                                               ; preds = %._crit_edge, %9, %2
  %.0 = phi i32 [ -1, %2 ], [ 0, %9 ], [ 0, %._crit_edge ]
  ret i32 %.0
}